target datalayout = "e-m:e-p270:32:32-p271:32:32-p272:64:64-i64:64-i128:128-f80:128-n8:16:32:64-S128"
target triple = "x86_64-pc-linux-gnu"

%struct.hb_object_header_t = type { %struct.hb_reference_count_t, %struct.hb_atomic_int_t, %struct.hb_atomic_ptr_t }
%struct.hb_reference_count_t = type { %struct.hb_atomic_int_t }
%struct.hb_atomic_ptr_t = type { ptr }
%struct.hb_atomic_int_t = type { i32 }
%struct.hb_font_t = type { %struct.hb_object_header_t, i32, i32, ptr, ptr, i32, i32, float, float, i8, i32, i32, float, float, float, float, i64, i64, i32, i32, float, i32, i32, ptr, ptr, ptr, ptr, ptr, %struct.hb_shaper_object_dataset_t.159 }
%struct.hb_shaper_object_dataset_t.159 = type { ptr, %struct.hb_shaper_lazy_loader_t.160, %struct.hb_shaper_lazy_loader_t.164 }
%struct.hb_shaper_lazy_loader_t.160 = type { %struct.hb_lazy_loader_t.161 }
%struct.hb_lazy_loader_t.161 = type { %struct.hb_atomic_ptr_t.163 }
%struct.hb_atomic_ptr_t.163 = type { ptr }
%struct.hb_shaper_lazy_loader_t.164 = type { %struct.hb_lazy_loader_t.165 }
%struct.hb_lazy_loader_t.165 = type { %struct.hb_atomic_ptr_t.167 }
%struct.hb_atomic_ptr_t.167 = type { ptr }
%struct.hb_buffer_t = type <{ %struct.hb_object_header_t, ptr, i32, i32, i32, i32, i32, i32, %struct.hb_segment_properties_t, i8, i8, i8, i8, i32, i32, i32, i32, [4 x i8], ptr, ptr, ptr, [2 x [5 x i32]], [2 x i32], i8, i8, [2 x i8], i32, i32, i32, ptr, ptr, ptr, i32, [4 x i8] }>
%struct.hb_segment_properties_t = type { i32, i32, ptr, ptr, ptr }
%union._hb_var_int_t = type { i32 }
%struct.hb_glyph_position_t = type { i32, i32, i32, i32, %union._hb_var_int_t }

; Function Attrs: mustprogress nounwind uwtable
define linkonce_odr hidden void @_ZN11hb_buffer_t10assert_varEjj(ptr noundef nonnull align 8 dereferenceable(220) %0, i32 noundef %1, i32 noundef %2) #3 comdat align 2 {
  %4 = alloca ptr, align 8
  %5 = alloca i32, align 4
  %6 = alloca i32, align 4
  %7 = alloca i32, align 4
  %8 = alloca i32, align 4
  store ptr %0, ptr %4, align 8
  store i32 %1, ptr %5, align 4
  store i32 %2, ptr %6, align 4
  %9 = load i32, ptr %5, align 4
  %10 = load i32, ptr %6, align 4
  %11 = add i32 %9, %10
  store i32 %11, ptr %7, align 4
  %12 = load i32, ptr %7, align 4
  %13 = shl i32 1, %12
  %14 = load i32, ptr %5, align 4
  %15 = shl i32 1, %14
  %16 = sub i32 %13, %15
  store i32 %16, ptr %8, align 4
  ret void
}

; Function Attrs: mustprogress nounwind uwtable
define internal noundef float @_ZL10_hb_roundff(float noundef %0) #3 {
  %2 = alloca float, align 4
  store float %0, ptr %2, align 4
  %3 = load float, ptr %2, align 4
  %4 = fadd float %3, 5.000000e-01
  %5 = call float @llvm.floor.f32(float %4)
  ret float %5
}

; Function Attrs: mustprogress nounwind uwtable
define internal noundef i32 @_Zan25hb_buffer_scratch_flags_tS_(i32 noundef %0, i32 noundef %1) #3 {
  %3 = alloca i32, align 4
  %4 = alloca i32, align 4
  store i32 %0, ptr %3, align 4
  store i32 %1, ptr %4, align 4
  %5 = load i32, ptr %3, align 4
  %6 = load i32, ptr %4, align 4
  %7 = and i32 %5, %6
  ret i32 %7
}

; Function Attrs: mustprogress uwtable
define internal void @_ZL31_hb_buffer_assert_gsubgpos_varsP11hb_buffer_t(ptr noundef %0) #0 {
  %2 = alloca ptr, align 8
  store ptr %0, ptr %2, align 8
  %3 = load ptr, ptr %2, align 8
  call void @_ZN11hb_buffer_t10assert_varEjj(ptr noundef nonnull align 8 dereferenceable(220) %3, i32 noundef 0, i32 noundef 2)
  %4 = load ptr, ptr %2, align 8
  call void @_ZN11hb_buffer_t10assert_varEjj(ptr noundef nonnull align 8 dereferenceable(220) %4, i32 noundef 2, i32 noundef 1)
  ret void
}

; Function Attrs: mustprogress uwtable
define linkonce_odr hidden void @_ZN2OT6Layout4GPOS23position_finish_offsetsEP9hb_font_tP11hb_buffer_t(ptr noundef %0, ptr noundef %1) #0 comdat align 2 {
  %3 = alloca ptr, align 8
  %4 = alloca ptr, align 8
  %5 = alloca i32, align 4
  %6 = alloca ptr, align 8
  %7 = alloca i32, align 4
  %8 = alloca i32, align 4
  %9 = alloca i32, align 4
  store ptr %0, ptr %3, align 8
  store ptr %1, ptr %4, align 8
  %10 = load ptr, ptr %4, align 8
  call void @_ZL31_hb_buffer_assert_gsubgpos_varsP11hb_buffer_t(ptr noundef %10)
  %11 = load ptr, ptr %4, align 8
  %12 = call ptr @hb_buffer_get_glyph_positions(ptr noundef %11, ptr noundef %5)
  store ptr %12, ptr %6, align 8
  %13 = load ptr, ptr %4, align 8
  %14 = getelementptr inbounds %struct.hb_buffer_t, ptr %13, i32 0, i32 8
  %15 = getelementptr inbounds %struct.hb_segment_properties_t, ptr %14, i32 0, i32 0
  %16 = load i32, ptr %15, align 8
  store i32 %16, ptr %7, align 4
  %17 = load ptr, ptr %4, align 8
  %18 = getelementptr inbounds %struct.hb_buffer_t, ptr %17, i32 0, i32 26
  %19 = load i32, ptr %18, align 4
  %20 = call noundef i32 @_Zan25hb_buffer_scratch_flags_tS_(i32 noundef %19, i32 noundef 8)
  %21 = icmp ne i32 %20, 0
  br i1 %21, label %22, label %36

22:                                               ; preds = %2
  store i32 0, ptr %8, align 4
  br label %23

23:                                               ; preds = %32, %22
  %24 = load i32, ptr %8, align 4
  %25 = load i32, ptr %5, align 4
  %26 = icmp ult i32 %24, %25
  br i1 %26, label %27, label %35

27:                                               ; preds = %23
  %28 = load ptr, ptr %6, align 8
  %29 = load i32, ptr %5, align 4
  %30 = load i32, ptr %8, align 4
  %31 = load i32, ptr %7, align 4
  call void @_ZN2OT6LayoutL28propagate_attachment_offsetsEP19hb_glyph_position_tjj14hb_direction_tj(ptr noundef %28, i32 noundef %29, i32 noundef %30, i32 noundef %31, i32 noundef 64)
  br label %32

32:                                               ; preds = %27
  %33 = load i32, ptr %8, align 4
  %34 = add i32 %33, 1
  store i32 %34, ptr %8, align 4
  br label %23, !llvm.loop !23

35:                                               ; preds = %23
  br label %36

36:                                               ; preds = %35, %2
  %37 = load ptr, ptr %3, align 8
  %38 = getelementptr inbounds %struct.hb_font_t, ptr %37, i32 0, i32 12
  %39 = load float, ptr %38, align 4
  %40 = fcmp une float %39, 0.000000e+00
  br i1 %40, label %41, label %81

41:                                               ; preds = %36
  store i32 0, ptr %9, align 4
  br label %42

42:                                               ; preds = %77, %41
  %43 = load i32, ptr %9, align 4
  %44 = load i32, ptr %5, align 4
  %45 = icmp ult i32 %43, %44
  br i1 %45, label %46, label %80

46:                                               ; preds = %42
  %47 = load ptr, ptr %6, align 8
  %48 = load i32, ptr %9, align 4
  %49 = zext i32 %48 to i64
  %50 = getelementptr inbounds %struct.hb_glyph_position_t, ptr %47, i64 %49
  %51 = getelementptr inbounds %struct.hb_glyph_position_t, ptr %50, i32 0, i32 3
  %52 = load i32, ptr %51, align 4
  %53 = icmp ne i32 %52, 0
  br i1 %53, label %54, label %76

54:                                               ; preds = %46
  %55 = load ptr, ptr %3, align 8
  %56 = getelementptr inbounds %struct.hb_font_t, ptr %55, i32 0, i32 13
  %57 = load float, ptr %56, align 8
  %58 = load ptr, ptr %6, align 8
  %59 = load i32, ptr %9, align 4
  %60 = zext i32 %59 to i64
  %61 = getelementptr inbounds %struct.hb_glyph_position_t, ptr %58, i64 %60
  %62 = getelementptr inbounds %struct.hb_glyph_position_t, ptr %61, i32 0, i32 3
  %63 = load i32, ptr %62, align 4
  %64 = sitofp i32 %63 to float
  %65 = fmul float %57, %64
  %66 = call noundef float @_ZL10_hb_roundff(float noundef %65)
  %67 = load ptr, ptr %6, align 8
  %68 = load i32, ptr %9, align 4
  %69 = zext i32 %68 to i64
  %70 = getelementptr inbounds %struct.hb_glyph_position_t, ptr %67, i64 %69
  %71 = getelementptr inbounds %struct.hb_glyph_position_t, ptr %70, i32 0, i32 2
  %72 = load i32, ptr %71, align 4
  %73 = sitofp i32 %72 to float
  %74 = fadd float %73, %66
  %75 = fptosi float %74 to i32
  store i32 %75, ptr %71, align 4
  br label %76

76:                                               ; preds = %54, %46
  br label %77

77:                                               ; preds = %76
  %78 = load i32, ptr %9, align 4
  %79 = add i32 %78, 1
  store i32 %79, ptr %9, align 4
  br label %42, !llvm.loop !24

80:                                               ; preds = %42
  br label %81

81:                                               ; preds = %80, %36
  ret void
}

; Function Attrs: mustprogress uwtable
define hidden void @_Z36hb_ot_layout_position_finish_offsetsP9hb_font_tP11hb_buffer_t(ptr noundef %0, ptr noundef %1) #0 {
  %3 = alloca ptr, align 8
  %4 = alloca ptr, align 8
  store ptr %0, ptr %3, align 8
  store ptr %1, ptr %4, align 8
  %5 = load ptr, ptr %3, align 8
  %6 = load ptr, ptr %4, align 8
  call void @_ZN2OT6Layout4GPOS23position_finish_offsetsEP9hb_font_tP11hb_buffer_t(ptr noundef %5, ptr noundef %6)
  ret void
}