; Function Attrs: mustprogress uwtable
define hidden void @_Z36hb_ot_layout_position_finish_offsetsP9hb_font_tP11hb_buffer_t(ptr nocapture noundef readonly %0, ptr noundef %1) local_unnamed_addr #0 {
  %3 = alloca i32, align 4
  call void @llvm.lifetime.start.p0(i64 4, ptr nonnull %3)
  %4 = call ptr @hb_buffer_get_glyph_positions(ptr noundef %1, ptr noundef nonnull %3)
  %5 = getelementptr inbounds i8, ptr %1, i64 48
  %6 = load i32, ptr %5, align 8
  %7 = getelementptr inbounds i8, ptr %1, i64 180
  %8 = load i32, ptr %7, align 4
  %9 = and i32 %8, 8
  %.not.i = icmp ne i32 %9, 0
  %10 = load i32, ptr %3, align 4
  %11 = icmp ne i32 %10, 0
  %or.cond.i = select i1 %.not.i, i1 %11, i1 false
  br i1 %or.cond.i, label %.lr.ph.i, label %.loopexit23.i

.lr.ph.i:                                         ; preds = %2, %.lr.ph.i
  %12 = phi i32 [ %14, %.lr.ph.i ], [ %10, %2 ]
  %.01824.i = phi i32 [ %13, %.lr.ph.i ], [ 0, %2 ]
  call fastcc void @_ZN2OT6LayoutL28propagate_attachment_offsetsEP19hb_glyph_position_tjj14hb_direction_tj(ptr noundef %4, i32 noundef %12, i32 noundef %.01824.i, i32 noundef %6, i32 noundef 64)
  %13 = add nuw i32 %.01824.i, 1
  %14 = load i32, ptr %3, align 4
  %15 = icmp ult i32 %13, %14
  br i1 %15, label %.lr.ph.i, label %.loopexit23.i, !llvm.loop !53

.loopexit23.i:                                    ; preds = %.lr.ph.i, %2
  %16 = phi i32 [ %10, %2 ], [ %14, %.lr.ph.i ]
  %17 = getelementptr inbounds i8, ptr %0, i64 68
  %18 = load float, ptr %17, align 4
  %19 = fcmp une float %18, 0.000000e+00
  %20 = icmp ne i32 %16, 0
  %or.cond29.i = select i1 %19, i1 %20, i1 false
  br i1 %or.cond29.i, label %.lr.ph26.i, label %_ZN2OT6Layout4GPOS23position_finish_offsetsEP9hb_font_tP11hb_buffer_t.exit

.lr.ph26.i:                                       ; preds = %.loopexit23.i
  %21 = getelementptr inbounds i8, ptr %0, i64 72
  br label %22

22:                                               ; preds = %38, %.lr.ph26.i
  %23 = phi i32 [ %16, %.lr.ph26.i ], [ %39, %38 ]
  %indvars.iv.i = phi i64 [ 0, %.lr.ph26.i ], [ %indvars.iv.next.i, %38 ]
  %24 = getelementptr inbounds %struct.hb_glyph_position_t, ptr %4, i64 %indvars.iv.i
  %25 = getelementptr inbounds i8, ptr %24, i64 12
  %26 = load i32, ptr %25, align 4
  %.not21.i = icmp eq i32 %26, 0
  br i1 %.not21.i, label %38, label %27

27:                                               ; preds = %22
  %28 = load float, ptr %21, align 8
  %29 = sitofp i32 %26 to float
  %30 = fmul float %28, %29
  %31 = fadd float %30, 5.000000e-01
  %32 = call noundef float @llvm.floor.f32(float %31)
  %33 = getelementptr inbounds i8, ptr %24, i64 8
  %34 = load i32, ptr %33, align 4
  %35 = sitofp i32 %34 to float
  %36 = fadd float %32, %35
  %37 = fptosi float %36 to i32
  store i32 %37, ptr %33, align 4
  %.pre.i = load i32, ptr %3, align 4
  br label %38

38:                                               ; preds = %27, %22
  %39 = phi i32 [ %23, %22 ], [ %.pre.i, %27 ]
  %indvars.iv.next.i = add nuw nsw i64 %indvars.iv.i, 1
  %40 = zext i32 %39 to i64
  %41 = icmp ult i64 %indvars.iv.next.i, %40
  br i1 %41, label %22, label %_ZN2OT6Layout4GPOS23position_finish_offsetsEP9hb_font_tP11hb_buffer_t.exit, !llvm.loop !54

_ZN2OT6Layout4GPOS23position_finish_offsetsEP9hb_font_tP11hb_buffer_t.exit: ; preds = %38, %.loopexit23.i
  call void @llvm.lifetime.end.p0(i64 4, ptr nonnull %3)
  ret void
}